; ModuleID = 'source-C-CXX/59/862.c'
source_filename = "source-C-CXX/59/862.c"
target datalayout = "e-m:e-p270:32:32-p271:32:32-p272:64:64-i64:64-f80:128-n8:16:32:64-S128"
target triple = "x86_64-pc-linux-gnu"

@.str = private unnamed_addr constant [3 x i8] c"%d\00", align 1
@.str.1 = private unnamed_addr constant [5 x i8] c" %d\0A\00", align 1
@str = private unnamed_addr constant [6 x i8] c"empty\00", align 1

; Function Attrs: nofree nounwind sspstrong uwtable
define dso_local i32 @main() local_unnamed_addr #0 {
  %1 = alloca i32, align 4
  %2 = alloca [10000 x i32], align 16
  %3 = bitcast i32* %1 to i8*
  call void @llvm.lifetime.start.p0i8(i64 4, i8* nonnull %3) #5
  %4 = bitcast [10000 x i32]* %2 to i8*
  call void @llvm.lifetime.start.p0i8(i64 40000, i8* nonnull %4) #5
  %5 = call i32 (i8*, ...) @__isoc99_scanf(i8* getelementptr inbounds ([3 x i8], [3 x i8]* @.str, i64 0, i64 0), i32* nonnull %1)
  %6 = load i32, i32* %1, align 4, !tbaa !5
  %7 = icmp slt i32 %6, 1
  br i1 %7, label %80, label %14

8:                                                ; preds = %57
  %9 = icmp sgt i32 %58, 0
  br i1 %9, label %10, label %80

10:                                               ; preds = %8
  %11 = zext i32 %58 to i64
  %12 = getelementptr inbounds [10000 x i32], [10000 x i32]* %2, i64 0, i64 0
  %13 = load i32, i32* %12, align 16, !tbaa !5
  br label %62

14:                                               ; preds = %0, %57
  %15 = phi i32 [ %61, %57 ], [ 0, %0 ]
  %16 = phi i32 [ %58, %57 ], [ 0, %0 ]
  %17 = phi i32 [ %59, %57 ], [ 1, %0 ]
  %18 = icmp ugt i32 %17, 1
  br i1 %18, label %19, label %57

19:                                               ; preds = %14
  %20 = and i32 %15, 1
  %21 = icmp eq i32 %15, 1
  br i1 %21, label %40, label %22

22:                                               ; preds = %19
  %23 = and i32 %15, -2
  br label %24

24:                                               ; preds = %24, %22
  %25 = phi i32 [ 0, %22 ], [ %36, %24 ]
  %26 = phi i32 [ 1, %22 ], [ %37, %24 ]
  %27 = phi i32 [ %23, %22 ], [ %38, %24 ]
  %28 = urem i32 %17, %26
  %29 = icmp eq i32 %28, 0
  %30 = zext i1 %29 to i32
  %31 = add nuw nsw i32 %25, %30
  %32 = add nuw nsw i32 %26, 1
  %33 = urem i32 %17, %32
  %34 = icmp eq i32 %33, 0
  %35 = zext i1 %34 to i32
  %36 = add nuw nsw i32 %31, %35
  %37 = add nuw nsw i32 %26, 2
  %38 = add i32 %27, -2
  %39 = icmp eq i32 %38, 0
  br i1 %39, label %40, label %24, !llvm.loop !9

40:                                               ; preds = %24, %19
  %41 = phi i32 [ undef, %19 ], [ %36, %24 ]
  %42 = phi i32 [ 0, %19 ], [ %36, %24 ]
  %43 = phi i32 [ 1, %19 ], [ %37, %24 ]
  %44 = icmp eq i32 %20, 0
  br i1 %44, label %50, label %45

45:                                               ; preds = %40
  %46 = urem i32 %17, %43
  %47 = icmp eq i32 %46, 0
  %48 = zext i1 %47 to i32
  %49 = add nuw nsw i32 %42, %48
  br label %50

50:                                               ; preds = %40, %45
  %51 = phi i32 [ %41, %40 ], [ %49, %45 ]
  %52 = icmp eq i32 %51, 1
  br i1 %52, label %53, label %57

53:                                               ; preds = %50
  %54 = sext i32 %16 to i64
  %55 = getelementptr inbounds [10000 x i32], [10000 x i32]* %2, i64 0, i64 %54
  store i32 %17, i32* %55, align 4, !tbaa !5
  %56 = add nsw i32 %16, 1
  br label %57

57:                                               ; preds = %14, %50, %53
  %58 = phi i32 [ %56, %53 ], [ %16, %50 ], [ %16, %14 ]
  %59 = add nuw i32 %17, 1
  %60 = icmp eq i32 %17, %6
  %61 = add i32 %15, 1
  br i1 %60, label %8, label %14, !llvm.loop !11

62:                                               ; preds = %10, %75
  %63 = phi i32 [ %13, %10 ], [ %68, %75 ]
  %64 = phi i64 [ 0, %10 ], [ %66, %75 ]
  %65 = phi i32 [ 0, %10 ], [ %76, %75 ]
  %66 = add nuw nsw i64 %64, 1
  %67 = getelementptr inbounds [10000 x i32], [10000 x i32]* %2, i64 0, i64 %66
  %68 = load i32, i32* %67, align 4, !tbaa !5
  %69 = sub nsw i32 %68, %63
  %70 = icmp eq i32 %69, 2
  br i1 %70, label %71, label %75

71:                                               ; preds = %62
  %72 = add nsw i32 %65, 1
  %73 = call i32 (i8*, ...) @printf(i8* nonnull dereferenceable(1) getelementptr inbounds ([3 x i8], [3 x i8]* @.str, i64 0, i64 0), i32 %63)
  %74 = call i32 (i8*, ...) @printf(i8* nonnull dereferenceable(1) getelementptr inbounds ([5 x i8], [5 x i8]* @.str.1, i64 0, i64 0), i32 %68)
  br label %75

75:                                               ; preds = %62, %71
  %76 = phi i32 [ %72, %71 ], [ %65, %62 ]
  %77 = icmp eq i64 %66, %11
  br i1 %77, label %78, label %62, !llvm.loop !12

78:                                               ; preds = %75
  %79 = icmp eq i32 %76, 0
  br i1 %79, label %80, label %82

80:                                               ; preds = %0, %8, %78
  %81 = call i32 @puts(i8* nonnull dereferenceable(1) getelementptr inbounds ([6 x i8], [6 x i8]* @str, i64 0, i64 0))
  br label %82

82:                                               ; preds = %80, %78
  call void @llvm.lifetime.end.p0i8(i64 40000, i8* nonnull %4) #5
  call void @llvm.lifetime.end.p0i8(i64 4, i8* nonnull %3) #5
  ret i32 0
}

; Function Attrs: argmemonly mustprogress nofree nosync nounwind willreturn
declare void @llvm.lifetime.start.p0i8(i64 immarg, i8* nocapture) #1

; Function Attrs: nofree nounwind
declare noundef i32 @__isoc99_scanf(i8* nocapture noundef readonly, ...) local_unnamed_addr #2

; Function Attrs: nofree norecurse nosync nounwind readnone sspstrong uwtable
define dso_local i32 @sushu(i32 %0) local_unnamed_addr #3 {
  %2 = icmp sgt i32 %0, 1
  br i1 %2, label %3, label %39

3:                                                ; preds = %1
  %4 = add i32 %0, -1
  %5 = and i32 %4, 1
  %6 = icmp eq i32 %0, 2
  br i1 %6, label %25, label %7

7:                                                ; preds = %3
  %8 = and i32 %4, -2
  br label %9

9:                                                ; preds = %9, %7
  %10 = phi i32 [ 0, %7 ], [ %21, %9 ]
  %11 = phi i32 [ 1, %7 ], [ %22, %9 ]
  %12 = phi i32 [ %8, %7 ], [ %23, %9 ]
  %13 = srem i32 %0, %11
  %14 = icmp eq i32 %13, 0
  %15 = zext i1 %14 to i32
  %16 = add nuw nsw i32 %10, %15
  %17 = add nuw nsw i32 %11, 1
  %18 = srem i32 %0, %17
  %19 = icmp eq i32 %18, 0
  %20 = zext i1 %19 to i32
  %21 = add nuw nsw i32 %16, %20
  %22 = add nuw nsw i32 %11, 2
  %23 = add i32 %12, -2
  %24 = icmp eq i32 %23, 0
  br i1 %24, label %25, label %9, !llvm.loop !9

25:                                               ; preds = %9, %3
  %26 = phi i32 [ undef, %3 ], [ %21, %9 ]
  %27 = phi i32 [ 0, %3 ], [ %21, %9 ]
  %28 = phi i32 [ 1, %3 ], [ %22, %9 ]
  %29 = icmp eq i32 %5, 0
  br i1 %29, label %35, label %30

30:                                               ; preds = %25
  %31 = srem i32 %0, %28
  %32 = icmp eq i32 %31, 0
  %33 = zext i1 %32 to i32
  %34 = add nuw nsw i32 %27, %33
  br label %35

35:                                               ; preds = %25, %30
  %36 = phi i32 [ %26, %25 ], [ %34, %30 ]
  %37 = icmp eq i32 %36, 1
  %38 = zext i1 %37 to i32
  br label %39

39:                                               ; preds = %35, %1
  %40 = phi i32 [ 0, %1 ], [ %38, %35 ]
  ret i32 %40
}

; Function Attrs: nofree nounwind
declare noundef i32 @printf(i8* nocapture noundef readonly, ...) local_unnamed_addr #2

; Function Attrs: argmemonly mustprogress nofree nosync nounwind willreturn
declare void @llvm.lifetime.end.p0i8(i64 immarg, i8* nocapture) #1

; Function Attrs: nofree nounwind
declare noundef i32 @puts(i8* nocapture noundef readonly) local_unnamed_addr #4


!llvm.module.flags = !{!0, !1, !2, !3}
!llvm.ident = !{!4}

!0 = !{i32 1, !"wchar_size", i32 4}
!1 = !{i32 7, !"PIC Level", i32 2}
!2 = !{i32 7, !"PIE Level", i32 2}
!3 = !{i32 7, !"uwtable", i32 1}
!4 = !{!"clang version 13.0.0"}
!5 = !{!6, !6, i64 0}
!6 = !{!"int", !7, i64 0}
!7 = !{!"omnipotent char", !8, i64 0}
!8 = !{!"Simple C/C++ TBAA"}
!9 = distinct !{!9, !10}
!10 = !{!"llvm.loop.mustprogress"}
!11 = distinct !{!11, !10}
!12 = distinct !{!12, !10}
